; Function Attrs: nounwind uwtable
define noalias nonnull ptr @l_Lean_NameMap_toJson___at___private_Lake_Load_Manifest_0__Lake_toJsonPackageEntryV6____x40_Lake_Load_Manifest___hyg_456____spec__1(ptr noundef %0) local_unnamed_addr #0 {
  %2 = tail call ptr @l_Lean_RBNode_fold___at___private_Lake_Load_Manifest_0__Lake_toJsonPackageEntryV6____x40_Lake_Load_Manifest___hyg_456____spec__2(ptr noundef nonnull inttoptr (i64 1 to ptr), ptr noundef %0)
  tail call void @lean_inc_heartbeat() #6
  %3 = tail call noalias ptr @mi_malloc_small(i64 noundef 16) #6
  %4 = icmp eq ptr %3, null
  br i1 %4, label %5, label %lean_alloc_ctor.exit

5:                                                ; preds = %1
  tail call void @lean_internal_panic_out_of_memory() #7
  unreachable

lean_alloc_ctor.exit:                             ; preds = %1
  %6 = getelementptr inbounds nuw i8, ptr %3, i64 4
  store i32 1, ptr %3, align 4, !tbaa !4
  store i32 83951632, ptr %6, align 4
  %7 = getelementptr inbounds nuw i8, ptr %3, i64 8
  store ptr %2, ptr %7, align 8, !tbaa !9
  ret ptr %3
}